target datalayout = "e-m:e-p270:32:32-p271:32:32-p272:64:64-i64:64-i128:128-f80:128-n8:16:32:64-S128"
target triple = "x86_64-pc-linux-gnu"

%"class.draco::SequentialAttributeDecodersController" = type { %"class.draco::AttributesDecoder", %"class.std::vector.2", %"class.std::vector.7", %"class.std::unique_ptr" }
%"class.draco::AttributesDecoder" = type { %"class.draco::AttributesDecoderInterface", %"class.std::vector", %"class.std::vector", ptr, ptr }
%"class.draco::AttributesDecoderInterface" = type { ptr }
%"class.std::vector" = type { %"struct.std::_Vector_base" }
%"struct.std::_Vector_base" = type { %"struct.std::_Vector_base<int, std::allocator<int>>::_Vector_impl" }
%"struct.std::_Vector_base<int, std::allocator<int>>::_Vector_impl" = type { %"struct.std::_Vector_base<int, std::allocator<int>>::_Vector_impl_data" }
%"struct.std::_Vector_base<int, std::allocator<int>>::_Vector_impl_data" = type { ptr, ptr, ptr }
%"class.std::vector.2" = type { %"struct.std::_Vector_base.3" }
%"struct.std::_Vector_base.3" = type { %"struct.std::_Vector_base<std::unique_ptr<draco::SequentialAttributeDecoder>, std::allocator<std::unique_ptr<draco::SequentialAttributeDecoder>>>::_Vector_impl" }
%"struct.std::_Vector_base<std::unique_ptr<draco::SequentialAttributeDecoder>, std::allocator<std::unique_ptr<draco::SequentialAttributeDecoder>>>::_Vector_impl" = type { %"struct.std::_Vector_base<std::unique_ptr<draco::SequentialAttributeDecoder>, std::allocator<std::unique_ptr<draco::SequentialAttributeDecoder>>>::_Vector_impl_data" }
%"struct.std::_Vector_base<std::unique_ptr<draco::SequentialAttributeDecoder>, std::allocator<std::unique_ptr<draco::SequentialAttributeDecoder>>>::_Vector_impl_data" = type { ptr, ptr, ptr }
%"class.std::vector.7" = type { %"struct.std::_Vector_base.8" }
%"struct.std::_Vector_base.8" = type { %"struct.std::_Vector_base<draco::IndexType<unsigned int, draco::PointIndex_tag_type_>, std::allocator<draco::IndexType<unsigned int, draco::PointIndex_tag_type_>>>::_Vector_impl" }
%"struct.std::_Vector_base<draco::IndexType<unsigned int, draco::PointIndex_tag_type_>, std::allocator<draco::IndexType<unsigned int, draco::PointIndex_tag_type_>>>::_Vector_impl" = type { %"struct.std::_Vector_base<draco::IndexType<unsigned int, draco::PointIndex_tag_type_>, std::allocator<draco::IndexType<unsigned int, draco::PointIndex_tag_type_>>>::_Vector_impl_data" }
%"struct.std::_Vector_base<draco::IndexType<unsigned int, draco::PointIndex_tag_type_>, std::allocator<draco::IndexType<unsigned int, draco::PointIndex_tag_type_>>>::_Vector_impl_data" = type { ptr, ptr, ptr }
%"class.std::unique_ptr" = type { %"struct.std::__uniq_ptr_data" }
%"struct.std::__uniq_ptr_data" = type { %"class.std::__uniq_ptr_impl" }
%"class.std::__uniq_ptr_impl" = type { %"class.std::tuple" }
%"class.std::tuple" = type { %"struct.std::_Tuple_impl" }
%"struct.std::_Tuple_impl" = type { %"struct.std::_Head_base.1" }
%"struct.std::_Head_base.1" = type { ptr }
%"class.draco::PointsSequencer" = type { ptr, ptr }
%"class.draco::PointCloudDecoder" = type { ptr, ptr, %"class.std::vector.41", %"class.std::vector", ptr, i8, i8, ptr }
%"class.std::vector.41" = type { %"struct.std::_Vector_base.42" }
%"struct.std::_Vector_base.42" = type { %"struct.std::_Vector_base<std::unique_ptr<draco::AttributesDecoderInterface>, std::allocator<std::unique_ptr<draco::AttributesDecoderInterface>>>::_Vector_impl" }
%"struct.std::_Vector_base<std::unique_ptr<draco::AttributesDecoderInterface>, std::allocator<std::unique_ptr<draco::AttributesDecoderInterface>>>::_Vector_impl" = type { %"struct.std::_Vector_base<std::unique_ptr<draco::AttributesDecoderInterface>, std::allocator<std::unique_ptr<draco::AttributesDecoderInterface>>>::_Vector_impl_data" }
%"struct.std::_Vector_base<std::unique_ptr<draco::AttributesDecoderInterface>, std::allocator<std::unique_ptr<draco::AttributesDecoderInterface>>>::_Vector_impl_data" = type { ptr, ptr, ptr }
%"class.draco::PointCloud" = type <{ ptr, %"class.std::unique_ptr.28", %"class.std::vector.36", [5 x %"class.std::vector"], i32, [4 x i8] }>
%"class.std::unique_ptr.28" = type { %"struct.std::__uniq_ptr_data.29" }
%"struct.std::__uniq_ptr_data.29" = type { %"class.std::__uniq_ptr_impl.30" }
%"class.std::__uniq_ptr_impl.30" = type { %"class.std::tuple.31" }
%"class.std::tuple.31" = type { %"struct.std::_Tuple_impl.32" }
%"struct.std::_Tuple_impl.32" = type { %"struct.std::_Head_base.35" }
%"struct.std::_Head_base.35" = type { ptr }
%"class.std::vector.36" = type { %"struct.std::_Vector_base.37" }
%"struct.std::_Vector_base.37" = type { %"struct.std::_Vector_base<std::unique_ptr<draco::PointAttribute>, std::allocator<std::unique_ptr<draco::PointAttribute>>>::_Vector_impl" }
%"struct.std::_Vector_base<std::unique_ptr<draco::PointAttribute>, std::allocator<std::unique_ptr<draco::PointAttribute>>>::_Vector_impl" = type { %"struct.std::_Vector_base<std::unique_ptr<draco::PointAttribute>, std::allocator<std::unique_ptr<draco::PointAttribute>>>::_Vector_impl_data" }
%"struct.std::_Vector_base<std::unique_ptr<draco::PointAttribute>, std::allocator<std::unique_ptr<draco::PointAttribute>>>::_Vector_impl_data" = type { ptr, ptr, ptr }
%"class.std::unique_ptr.20" = type { %"struct.std::__uniq_ptr_data.21" }
%"struct.std::__uniq_ptr_data.21" = type { %"class.std::__uniq_ptr_impl.22" }
%"class.std::__uniq_ptr_impl.22" = type { %"class.std::tuple.23" }
%"class.std::tuple.23" = type { %"struct.std::_Tuple_impl.24" }
%"struct.std::_Tuple_impl.24" = type { %"struct.std::_Head_base.27" }
%"struct.std::_Head_base.27" = type { ptr }

; Function Attrs: mustprogress nounwind uwtable
define linkonce_odr noundef nonnull align 8 dereferenceable(8) ptr @_ZNSt10_Head_baseILm0EPN5draco14PointAttributeELb0EE7_M_headERKS3_(ptr noundef nonnull align 8 dereferenceable(8) %0) #5 comdat align 2 {
  %2 = alloca ptr, align 8
  store ptr %0, ptr %2, align 8
  %3 = load ptr, ptr %2, align 8
  %4 = getelementptr inbounds %"struct.std::_Head_base.27", ptr %3, i32 0, i32 0
  ret ptr %4
}

; Function Attrs: mustprogress nounwind uwtable
define linkonce_odr noundef nonnull align 8 dereferenceable(8) ptr @_ZNSt10_Head_baseILm0EPN5draco15PointsSequencerELb0EE7_M_headERKS3_(ptr noundef nonnull align 8 dereferenceable(8) %0) #5 comdat align 2 {
  %2 = alloca ptr, align 8
  store ptr %0, ptr %2, align 8
  %3 = load ptr, ptr %2, align 8
  %4 = getelementptr inbounds %"struct.std::_Head_base.1", ptr %3, i32 0, i32 0
  ret ptr %4
}

; Function Attrs: mustprogress nounwind uwtable
define linkonce_odr noundef nonnull align 8 dereferenceable(8) ptr @_ZNSt11_Tuple_implILm0EJPN5draco14PointAttributeESt14default_deleteIS1_EEE7_M_headERKS5_(ptr noundef nonnull align 8 dereferenceable(8) %0) #5 comdat align 2 {
  %2 = alloca ptr, align 8
  store ptr %0, ptr %2, align 8
  %3 = load ptr, ptr %2, align 8
  %4 = call noundef nonnull align 8 dereferenceable(8) ptr @_ZNSt10_Head_baseILm0EPN5draco14PointAttributeELb0EE7_M_headERKS3_(ptr noundef nonnull align 8 dereferenceable(8) %3) #3
  ret ptr %4
}

; Function Attrs: mustprogress nounwind uwtable
define linkonce_odr noundef nonnull align 8 dereferenceable(8) ptr @_ZNSt11_Tuple_implILm0EJPN5draco15PointsSequencerESt14default_deleteIS1_EEE7_M_headERKS5_(ptr noundef nonnull align 8 dereferenceable(8) %0) #5 comdat align 2 {
  %2 = alloca ptr, align 8
  store ptr %0, ptr %2, align 8
  %3 = load ptr, ptr %2, align 8
  %4 = call noundef nonnull align 8 dereferenceable(8) ptr @_ZNSt10_Head_baseILm0EPN5draco15PointsSequencerELb0EE7_M_headERKS3_(ptr noundef nonnull align 8 dereferenceable(8) %3) #3
  ret ptr %4
}

; Function Attrs: mustprogress nounwind uwtable
define linkonce_odr noundef nonnull align 8 dereferenceable(8) ptr @_ZSt12__get_helperILm0EPN5draco14PointAttributeEJSt14default_deleteIS1_EEERKT0_RKSt11_Tuple_implIXT_EJS5_DpT1_EE(ptr noundef nonnull align 8 dereferenceable(8) %0) #5 comdat {
  %2 = alloca ptr, align 8
  store ptr %0, ptr %2, align 8
  %3 = load ptr, ptr %2, align 8
  %4 = call noundef nonnull align 8 dereferenceable(8) ptr @_ZNSt11_Tuple_implILm0EJPN5draco14PointAttributeESt14default_deleteIS1_EEE7_M_headERKS5_(ptr noundef nonnull align 8 dereferenceable(8) %3) #3
  ret ptr %4
}

; Function Attrs: mustprogress nounwind uwtable
define linkonce_odr noundef nonnull align 8 dereferenceable(8) ptr @_ZSt12__get_helperILm0EPN5draco15PointsSequencerEJSt14default_deleteIS1_EEERKT0_RKSt11_Tuple_implIXT_EJS5_DpT1_EE(ptr noundef nonnull align 8 dereferenceable(8) %0) #5 comdat {
  %2 = alloca ptr, align 8
  store ptr %0, ptr %2, align 8
  %3 = load ptr, ptr %2, align 8
  %4 = call noundef nonnull align 8 dereferenceable(8) ptr @_ZNSt11_Tuple_implILm0EJPN5draco15PointsSequencerESt14default_deleteIS1_EEE7_M_headERKS5_(ptr noundef nonnull align 8 dereferenceable(8) %3) #3
  ret ptr %4
}

; Function Attrs: mustprogress nounwind uwtable
define linkonce_odr noundef nonnull align 8 dereferenceable(8) ptr @_ZSt3getILm0EJPN5draco14PointAttributeESt14default_deleteIS1_EEERKNSt13tuple_elementIXT_ESt5tupleIJDpT0_EEE4typeERKS9_(ptr noundef nonnull align 8 dereferenceable(8) %0) #5 comdat {
  %2 = alloca ptr, align 8
  store ptr %0, ptr %2, align 8
  %3 = load ptr, ptr %2, align 8
  %4 = call noundef nonnull align 8 dereferenceable(8) ptr @_ZSt12__get_helperILm0EPN5draco14PointAttributeEJSt14default_deleteIS1_EEERKT0_RKSt11_Tuple_implIXT_EJS5_DpT1_EE(ptr noundef nonnull align 8 dereferenceable(8) %3) #3
  ret ptr %4
}

; Function Attrs: mustprogress nounwind uwtable
define linkonce_odr noundef nonnull align 8 dereferenceable(8) ptr @_ZSt3getILm0EJPN5draco15PointsSequencerESt14default_deleteIS1_EEERKNSt13tuple_elementIXT_ESt5tupleIJDpT0_EEE4typeERKS9_(ptr noundef nonnull align 8 dereferenceable(8) %0) #5 comdat {
  %2 = alloca ptr, align 8
  store ptr %0, ptr %2, align 8
  %3 = load ptr, ptr %2, align 8
  %4 = call noundef nonnull align 8 dereferenceable(8) ptr @_ZSt12__get_helperILm0EPN5draco15PointsSequencerEJSt14default_deleteIS1_EEERKT0_RKSt11_Tuple_implIXT_EJS5_DpT1_EE(ptr noundef nonnull align 8 dereferenceable(8) %3) #3
  ret ptr %4
}

; Function Attrs: mustprogress nounwind uwtable
define linkonce_odr noundef ptr @_ZNKSt15__uniq_ptr_implIN5draco14PointAttributeESt14default_deleteIS1_EE6_M_ptrEv(ptr noundef nonnull align 8 dereferenceable(8) %0) #5 comdat align 2 {
  %2 = alloca ptr, align 8
  store ptr %0, ptr %2, align 8
  %3 = load ptr, ptr %2, align 8
  %4 = getelementptr inbounds %"class.std::__uniq_ptr_impl.22", ptr %3, i32 0, i32 0
  %5 = call noundef nonnull align 8 dereferenceable(8) ptr @_ZSt3getILm0EJPN5draco14PointAttributeESt14default_deleteIS1_EEERKNSt13tuple_elementIXT_ESt5tupleIJDpT0_EEE4typeERKS9_(ptr noundef nonnull align 8 dereferenceable(8) %4) #3
  %6 = load ptr, ptr %5, align 8
  ret ptr %6
}

; Function Attrs: mustprogress nounwind uwtable
define linkonce_odr noundef ptr @_ZNKSt15__uniq_ptr_implIN5draco15PointsSequencerESt14default_deleteIS1_EE6_M_ptrEv(ptr noundef nonnull align 8 dereferenceable(8) %0) #5 comdat align 2 {
  %2 = alloca ptr, align 8
  store ptr %0, ptr %2, align 8
  %3 = load ptr, ptr %2, align 8
  %4 = getelementptr inbounds %"class.std::__uniq_ptr_impl", ptr %3, i32 0, i32 0
  %5 = call noundef nonnull align 8 dereferenceable(8) ptr @_ZSt3getILm0EJPN5draco15PointsSequencerESt14default_deleteIS1_EEERKNSt13tuple_elementIXT_ESt5tupleIJDpT0_EEE4typeERKS9_(ptr noundef nonnull align 8 dereferenceable(8) %4) #3
  %6 = load ptr, ptr %5, align 8
  ret ptr %6
}

; Function Attrs: mustprogress nounwind uwtable
define linkonce_odr noundef ptr @_ZNKSt10unique_ptrIN5draco14PointAttributeESt14default_deleteIS1_EE3getEv(ptr noundef nonnull align 8 dereferenceable(8) %0) #5 comdat align 2 {
  %2 = alloca ptr, align 8
  store ptr %0, ptr %2, align 8
  %3 = load ptr, ptr %2, align 8
  %4 = getelementptr inbounds %"class.std::unique_ptr.20", ptr %3, i32 0, i32 0
  %5 = call noundef ptr @_ZNKSt15__uniq_ptr_implIN5draco14PointAttributeESt14default_deleteIS1_EE6_M_ptrEv(ptr noundef nonnull align 8 dereferenceable(8) %4) #3
  ret ptr %5
}

; Function Attrs: mustprogress nounwind uwtable
define linkonce_odr noundef nonnull align 8 dereferenceable(8) ptr @_ZNSt6vectorISt10unique_ptrIN5draco14PointAttributeESt14default_deleteIS2_EESaIS5_EEixEm(ptr noundef nonnull align 8 dereferenceable(24) %0, i64 noundef %1) #5 comdat align 2 {
  %3 = alloca ptr, align 8
  %4 = alloca i64, align 8
  store ptr %0, ptr %3, align 8
  store i64 %1, ptr %4, align 8
  %5 = load ptr, ptr %3, align 8
  %6 = getelementptr inbounds %"struct.std::_Vector_base.37", ptr %5, i32 0, i32 0
  %7 = getelementptr inbounds %"struct.std::_Vector_base<std::unique_ptr<draco::PointAttribute>, std::allocator<std::unique_ptr<draco::PointAttribute>>>::_Vector_impl_data", ptr %6, i32 0, i32 0
  %8 = load ptr, ptr %7, align 8
  %9 = load i64, ptr %4, align 8
  %10 = getelementptr inbounds %"class.std::unique_ptr.20", ptr %8, i64 %9
  ret ptr %10
}

; Function Attrs: mustprogress nounwind uwtable
define linkonce_odr noundef ptr @_ZNKSt10unique_ptrIN5draco15PointsSequencerESt14default_deleteIS1_EE3getEv(ptr noundef nonnull align 8 dereferenceable(8) %0) #5 comdat align 2 {
  %2 = alloca ptr, align 8
  store ptr %0, ptr %2, align 8
  %3 = load ptr, ptr %2, align 8
  %4 = getelementptr inbounds %"class.std::unique_ptr", ptr %3, i32 0, i32 0
  %5 = call noundef ptr @_ZNKSt15__uniq_ptr_implIN5draco15PointsSequencerESt14default_deleteIS1_EE6_M_ptrEv(ptr noundef nonnull align 8 dereferenceable(8) %4) #3
  ret ptr %5
}

; Function Attrs: mustprogress uwtable
define linkonce_odr noundef zeroext i1 @_ZN5draco17AttributesDecoder16DecodeAttributesEPNS_13DecoderBufferE(ptr noundef nonnull align 8 dereferenceable(72) %0, ptr noundef %1) unnamed_addr #4 comdat align 2 {
  %3 = alloca i1, align 1
  %4 = alloca ptr, align 8
  %5 = alloca ptr, align 8
  store ptr %0, ptr %4, align 8
  store ptr %1, ptr %5, align 8
  %6 = load ptr, ptr %4, align 8
  %7 = load ptr, ptr %5, align 8
  %8 = load ptr, ptr %6, align 8
  %9 = getelementptr inbounds ptr, ptr %8, i64 9
  %10 = load ptr, ptr %9, align 8
  %11 = call noundef zeroext i1 %10(ptr noundef nonnull align 8 dereferenceable(72) %6, ptr noundef %7)
  br i1 %11, label %13, label %12

12:                                               ; preds = %2
  store i1 false, ptr %3, align 1
  br label %27

13:                                               ; preds = %2
  %14 = load ptr, ptr %5, align 8
  %15 = load ptr, ptr %6, align 8
  %16 = getelementptr inbounds ptr, ptr %15, i64 10
  %17 = load ptr, ptr %16, align 8
  %18 = call noundef zeroext i1 %17(ptr noundef nonnull align 8 dereferenceable(72) %6, ptr noundef %14)
  br i1 %18, label %20, label %19

19:                                               ; preds = %13
  store i1 false, ptr %3, align 1
  br label %27

20:                                               ; preds = %13
  %21 = load ptr, ptr %6, align 8
  %22 = getelementptr inbounds ptr, ptr %21, i64 11
  %23 = load ptr, ptr %22, align 8
  %24 = call noundef zeroext i1 %23(ptr noundef nonnull align 8 dereferenceable(72) %6)
  br i1 %24, label %26, label %25

25:                                               ; preds = %20
  store i1 false, ptr %3, align 1
  br label %27

26:                                               ; preds = %20
  store i1 true, ptr %3, align 1
  br label %27

27:                                               ; preds = %26, %25, %19, %12
  %28 = load i1, ptr %3, align 1
  ret i1 %28
}

; Function Attrs: mustprogress nounwind uwtable
define linkonce_odr noundef ptr @_ZN5draco10PointCloud9attributeEi(ptr noundef nonnull align 8 dereferenceable(164) %0, i32 noundef %1) #5 comdat align 2 {
  %3 = alloca ptr, align 8
  %4 = alloca i32, align 4
  store ptr %0, ptr %3, align 8
  store i32 %1, ptr %4, align 4
  %5 = load ptr, ptr %3, align 8
  %6 = getelementptr inbounds %"class.draco::PointCloud", ptr %5, i32 0, i32 2
  %7 = load i32, ptr %4, align 4
  %8 = sext i32 %7 to i64
  %9 = call noundef nonnull align 8 dereferenceable(8) ptr @_ZNSt6vectorISt10unique_ptrIN5draco14PointAttributeESt14default_deleteIS2_EESaIS5_EEixEm(ptr noundef nonnull align 8 dereferenceable(24) %6, i64 noundef %8) #3
  %10 = call noundef ptr @_ZNKSt10unique_ptrIN5draco14PointAttributeESt14default_deleteIS1_EE3getEv(ptr noundef nonnull align 8 dereferenceable(8) %9) #3
  ret ptr %10
}

; Function Attrs: mustprogress nounwind uwtable
define linkonce_odr noundef ptr @_ZN5draco17PointCloudDecoder11point_cloudEv(ptr noundef nonnull align 8 dereferenceable(88) %0) #5 comdat align 2 {
  %2 = alloca ptr, align 8
  store ptr %0, ptr %2, align 8
  %3 = load ptr, ptr %2, align 8
  %4 = getelementptr inbounds %"class.draco::PointCloudDecoder", ptr %3, i32 0, i32 1
  %5 = load ptr, ptr %4, align 8
  ret ptr %5
}

; Function Attrs: mustprogress uwtable
define linkonce_odr noundef zeroext i1 @_ZN5draco15PointsSequencer16GenerateSequenceEPSt6vectorINS_9IndexTypeIjNS_20PointIndex_tag_type_EEESaIS4_EE(ptr noundef nonnull align 8 dereferenceable(16) %0, ptr noundef %1) #4 comdat align 2 {
  %3 = alloca ptr, align 8
  %4 = alloca ptr, align 8
  store ptr %0, ptr %3, align 8
  store ptr %1, ptr %4, align 8
  %5 = load ptr, ptr %3, align 8
  %6 = load ptr, ptr %4, align 8
  %7 = getelementptr inbounds %"class.draco::PointsSequencer", ptr %5, i32 0, i32 1
  store ptr %6, ptr %7, align 8
  %8 = load ptr, ptr %5, align 8
  %9 = getelementptr inbounds ptr, ptr %8, i64 3
  %10 = load ptr, ptr %9, align 8
  %11 = call noundef zeroext i1 %10(ptr noundef nonnull align 8 dereferenceable(16) %5)
  ret i1 %11
}

; Function Attrs: mustprogress nounwind uwtable
define linkonce_odr noundef ptr @_ZNKSt10unique_ptrIN5draco15PointsSequencerESt14default_deleteIS1_EEptEv(ptr noundef nonnull align 8 dereferenceable(8) %0) #5 comdat align 2 {
  %2 = alloca ptr, align 8
  store ptr %0, ptr %2, align 8
  %3 = load ptr, ptr %2, align 8
  %4 = call noundef ptr @_ZNKSt10unique_ptrIN5draco15PointsSequencerESt14default_deleteIS1_EE3getEv(ptr noundef nonnull align 8 dereferenceable(8) %3) #3
  ret ptr %4
}

; Function Attrs: mustprogress nounwind uwtable
define linkonce_odr noundef zeroext i1 @_ZNKSt10unique_ptrIN5draco15PointsSequencerESt14default_deleteIS1_EEcvbEv(ptr noundef nonnull align 8 dereferenceable(8) %0) #5 comdat align 2 {
  %2 = alloca ptr, align 8
  store ptr %0, ptr %2, align 8
  %3 = load ptr, ptr %2, align 8
  %4 = call noundef ptr @_ZNKSt10unique_ptrIN5draco15PointsSequencerESt14default_deleteIS1_EE3getEv(ptr noundef nonnull align 8 dereferenceable(8) %3) #3
  %5 = icmp eq ptr %4, null
  %6 = select i1 %5, i1 false, i1 true
  ret i1 %6
}

; Function Attrs: mustprogress uwtable
define noundef zeroext i1 @_ZN5draco37SequentialAttributeDecodersController16DecodeAttributesEPNS_13DecoderBufferE(ptr noundef nonnull align 8 dereferenceable(128) %0, ptr noundef %1) unnamed_addr #4 align 2 {
  %3 = alloca i1, align 1
  %4 = alloca ptr, align 8
  %5 = alloca ptr, align 8
  %6 = alloca i32, align 4
  %7 = alloca i32, align 4
  %8 = alloca ptr, align 8
  store ptr %0, ptr %4, align 8
  store ptr %1, ptr %5, align 8
  %9 = load ptr, ptr %4, align 8
  %10 = getelementptr inbounds %"class.draco::SequentialAttributeDecodersController", ptr %9, i32 0, i32 3
  %11 = call noundef zeroext i1 @_ZNKSt10unique_ptrIN5draco15PointsSequencerESt14default_deleteIS1_EEcvbEv(ptr noundef nonnull align 8 dereferenceable(8) %10) #3
  br i1 %11, label %12, label %17

12:                                               ; preds = %2
  %13 = getelementptr inbounds %"class.draco::SequentialAttributeDecodersController", ptr %9, i32 0, i32 3
  %14 = call noundef ptr @_ZNKSt10unique_ptrIN5draco15PointsSequencerESt14default_deleteIS1_EEptEv(ptr noundef nonnull align 8 dereferenceable(8) %13) #3
  %15 = getelementptr inbounds %"class.draco::SequentialAttributeDecodersController", ptr %9, i32 0, i32 2
  %16 = call noundef zeroext i1 @_ZN5draco15PointsSequencer16GenerateSequenceEPSt6vectorINS_9IndexTypeIjNS_20PointIndex_tag_type_EEESaIS4_EE(ptr noundef nonnull align 8 dereferenceable(16) %14, ptr noundef %15)
  br i1 %16, label %18, label %17

17:                                               ; preds = %12, %2
  store i1 false, ptr %3, align 1
  br label %54

18:                                               ; preds = %12
  %19 = load ptr, ptr %9, align 8
  %20 = getelementptr inbounds ptr, ptr %19, i64 6
  %21 = load ptr, ptr %20, align 8
  %22 = call noundef i32 %21(ptr noundef nonnull align 8 dereferenceable(72) %9)
  store i32 %22, ptr %6, align 4
  store i32 0, ptr %7, align 4
  br label %23

23:                                               ; preds = %48, %18
  %24 = load i32, ptr %7, align 4
  %25 = load i32, ptr %6, align 4
  %26 = icmp slt i32 %24, %25
  br i1 %26, label %27, label %51

27:                                               ; preds = %23
  %28 = load ptr, ptr %9, align 8
  %29 = getelementptr inbounds ptr, ptr %28, i64 7
  %30 = load ptr, ptr %29, align 8
  %31 = call noundef ptr %30(ptr noundef nonnull align 8 dereferenceable(72) %9)
  %32 = call noundef ptr @_ZN5draco17PointCloudDecoder11point_cloudEv(ptr noundef nonnull align 8 dereferenceable(88) %31)
  %33 = load i32, ptr %7, align 4
  %34 = load ptr, ptr %9, align 8
  %35 = getelementptr inbounds ptr, ptr %34, i64 5
  %36 = load ptr, ptr %35, align 8
  %37 = call noundef i32 %36(ptr noundef nonnull align 8 dereferenceable(72) %9, i32 noundef %33)
  %38 = call noundef ptr @_ZN5draco10PointCloud9attributeEi(ptr noundef nonnull align 8 dereferenceable(164) %32, i32 noundef %37)
  store ptr %38, ptr %8, align 8
  %39 = getelementptr inbounds %"class.draco::SequentialAttributeDecodersController", ptr %9, i32 0, i32 3
  %40 = call noundef ptr @_ZNKSt10unique_ptrIN5draco15PointsSequencerESt14default_deleteIS1_EEptEv(ptr noundef nonnull align 8 dereferenceable(8) %39) #3
  %41 = load ptr, ptr %8, align 8
  %42 = load ptr, ptr %40, align 8
  %43 = getelementptr inbounds ptr, ptr %42, i64 2
  %44 = load ptr, ptr %43, align 8
  %45 = call noundef zeroext i1 %44(ptr noundef nonnull align 8 dereferenceable(16) %40, ptr noundef %41)
  br i1 %45, label %47, label %46

46:                                               ; preds = %27
  store i1 false, ptr %3, align 1
  br label %54

47:                                               ; preds = %27
  br label %48

48:                                               ; preds = %47
  %49 = load i32, ptr %7, align 4
  %50 = add nsw i32 %49, 1
  store i32 %50, ptr %7, align 4
  br label %23, !llvm.loop !6

51:                                               ; preds = %23
  %52 = load ptr, ptr %5, align 8
  %53 = call noundef zeroext i1 @_ZN5draco17AttributesDecoder16DecodeAttributesEPNS_13DecoderBufferE(ptr noundef nonnull align 8 dereferenceable(72) %9, ptr noundef %52)
  store i1 %53, ptr %3, align 1
  br label %54

54:                                               ; preds = %51, %46, %17
  %55 = load i1, ptr %3, align 1
  ret i1 %55
}