; Function Attrs: mustprogress uwtable
define noundef zeroext i1 @_ZN5draco37SequentialAttributeDecodersController16DecodeAttributesEPNS_13DecoderBufferE(ptr noundef nonnull align 8 dereferenceable(128) %0, ptr noundef %1) unnamed_addr #3 align 2 {
  %3 = getelementptr inbounds i8, ptr %0, i64 120
  %4 = load ptr, ptr %3, align 8
  %.not = icmp eq ptr %4, null
  br i1 %.not, label %_ZN5draco17AttributesDecoder16DecodeAttributesEPNS_13DecoderBufferE.exit, label %5

5:                                                ; preds = %2
  %6 = getelementptr inbounds i8, ptr %0, i64 96
  %7 = getelementptr inbounds i8, ptr %4, i64 8
  store ptr %6, ptr %7, align 8
  %8 = load ptr, ptr %4, align 8
  %9 = getelementptr inbounds i8, ptr %8, i64 24
  %10 = load ptr, ptr %9, align 8
  %11 = tail call noundef zeroext i1 %10(ptr noundef nonnull align 8 dereferenceable(16) %4)
  br i1 %11, label %12, label %_ZN5draco17AttributesDecoder16DecodeAttributesEPNS_13DecoderBufferE.exit

12:                                               ; preds = %5
  %13 = load ptr, ptr %0, align 8
  %14 = getelementptr inbounds i8, ptr %13, i64 48
  %15 = load ptr, ptr %14, align 8
  %16 = tail call noundef i32 %15(ptr noundef nonnull align 8 dereferenceable(72) %0)
  %17 = icmp sgt i32 %16, 0
  br i1 %17, label %.lr.ph, label %._crit_edge

18:                                               ; preds = %.lr.ph
  %19 = add nuw nsw i32 %.078, 1
  %exitcond.not = icmp eq i32 %19, %16
  br i1 %exitcond.not, label %._crit_edge, label %.lr.ph, !llvm.loop !13

.lr.ph:                                           ; preds = %12, %18
  %.078 = phi i32 [ %19, %18 ], [ 0, %12 ]
  %20 = load ptr, ptr %0, align 8
  %21 = getelementptr inbounds i8, ptr %20, i64 56
  %22 = load ptr, ptr %21, align 8
  %23 = tail call noundef ptr %22(ptr noundef nonnull align 8 dereferenceable(72) %0)
  %24 = getelementptr inbounds i8, ptr %23, i64 8
  %25 = load ptr, ptr %24, align 8
  %26 = load ptr, ptr %0, align 8
  %27 = getelementptr inbounds i8, ptr %26, i64 40
  %28 = load ptr, ptr %27, align 8
  %29 = tail call noundef i32 %28(ptr noundef nonnull align 8 dereferenceable(72) %0, i32 noundef %.078)
  %30 = getelementptr inbounds i8, ptr %25, i64 16
  %31 = sext i32 %29 to i64
  %32 = load ptr, ptr %30, align 8
  %33 = getelementptr inbounds %"class.std::unique_ptr.20", ptr %32, i64 %31
  %34 = load ptr, ptr %33, align 8
  %35 = load ptr, ptr %3, align 8
  %36 = load ptr, ptr %35, align 8
  %37 = getelementptr inbounds i8, ptr %36, i64 16
  %38 = load ptr, ptr %37, align 8
  %39 = tail call noundef zeroext i1 %38(ptr noundef nonnull align 8 dereferenceable(16) %35, ptr noundef %34)
  br i1 %39, label %18, label %_ZN5draco17AttributesDecoder16DecodeAttributesEPNS_13DecoderBufferE.exit

._crit_edge:                                      ; preds = %18, %12
  %40 = load ptr, ptr %0, align 8
  %41 = getelementptr inbounds i8, ptr %40, i64 72
  %42 = load ptr, ptr %41, align 8
  %43 = tail call noundef zeroext i1 %42(ptr noundef nonnull align 8 dereferenceable(72) %0, ptr noundef %1)
  br i1 %43, label %44, label %_ZN5draco17AttributesDecoder16DecodeAttributesEPNS_13DecoderBufferE.exit

44:                                               ; preds = %._crit_edge
  %45 = load ptr, ptr %0, align 8
  %46 = getelementptr inbounds i8, ptr %45, i64 80
  %47 = load ptr, ptr %46, align 8
  %48 = tail call noundef zeroext i1 %47(ptr noundef nonnull align 8 dereferenceable(72) %0, ptr noundef %1)
  br i1 %48, label %49, label %_ZN5draco17AttributesDecoder16DecodeAttributesEPNS_13DecoderBufferE.exit

49:                                               ; preds = %44
  %50 = load ptr, ptr %0, align 8
  %51 = getelementptr inbounds i8, ptr %50, i64 88
  %52 = load ptr, ptr %51, align 8
  %53 = tail call noundef zeroext i1 %52(ptr noundef nonnull align 8 dereferenceable(72) %0)
  br label %_ZN5draco17AttributesDecoder16DecodeAttributesEPNS_13DecoderBufferE.exit

_ZN5draco17AttributesDecoder16DecodeAttributesEPNS_13DecoderBufferE.exit: ; preds = %.lr.ph, %49, %44, %._crit_edge, %2, %5
  %.0 = phi i1 [ false, %5 ], [ false, %2 ], [ false, %._crit_edge ], [ false, %44 ], [ %53, %49 ], [ false, %.lr.ph ]
  ret i1 %.0
}